; Function Attrs: mustprogress nofree norecurse nosync nounwind willreturn memory(read, argmem: readwrite, inaccessiblemem: none) uwtable
define internal noundef i32 @H5A__dense_btree2_name_store(ptr noundef writeonly captures(none) %0, ptr noundef readonly captures(none) %1) #0 {
  %3 = load i8, ptr @H5A_init_g, align 1, !tbaa !3, !range !7, !noundef !8
  %4 = trunc nuw i8 %3 to i1
  %5 = load i8, ptr @H5_libterm_g, align 1, !range !7
  %6 = trunc nuw i8 %5 to i1
  %7 = xor i1 %6, true
  %8 = select i1 %4, i1 true, i1 %7
  br i1 %8, label %9, label %21, !prof !9

9:                                                ; preds = %2
  %10 = getelementptr inbounds nuw i8, ptr %1, i64 64
  %11 = load i64, ptr %10, align 8, !tbaa !10
  store i64 %11, ptr %0, align 8, !tbaa !10
  %12 = getelementptr inbounds nuw i8, ptr %1, i64 36
  %13 = load i8, ptr %12, align 4, !tbaa !11
  %14 = getelementptr inbounds nuw i8, ptr %0, i64 8
  store i8 %13, ptr %14, align 8, !tbaa !19
  %15 = getelementptr inbounds nuw i8, ptr %1, i64 40
  %16 = load i32, ptr %15, align 8, !tbaa !21
  %17 = getelementptr inbounds nuw i8, ptr %0, i64 12
  store i32 %16, ptr %17, align 4, !tbaa !22
  %18 = getelementptr inbounds nuw i8, ptr %1, i64 32
  %19 = load i32, ptr %18, align 8, !tbaa !23
  %20 = getelementptr inbounds nuw i8, ptr %0, i64 16
  store i32 %19, ptr %20, align 8, !tbaa !24
  br label %21

21:                                               ; preds = %9, %2
  ret i32 0
}